target datalayout = "e-m:e-p270:32:32-p271:32:32-p272:64:64-i64:64-i128:128-f80:128-n8:16:32:64-S128"
target triple = "x86_64-unknown-linux-gnu"

%"class.rocksdb::lru_cache::LRUHandleTable" = type { i32, %"class.std::unique_ptr", i32, i32, ptr }
%"class.std::unique_ptr" = type { %"struct.std::__uniq_ptr_data" }
%"struct.std::__uniq_ptr_data" = type { %"class.std::__uniq_ptr_impl" }
%"class.std::__uniq_ptr_impl" = type { %"class.std::tuple" }
%"class.std::tuple" = type { %"struct.std::_Tuple_impl" }
%"struct.std::_Tuple_impl" = type { %"struct.std::_Head_base.1" }
%"struct.std::_Head_base.1" = type { ptr }
%"struct.rocksdb::lru_cache::LRUHandle" = type { ptr, ptr, ptr, ptr, ptr, i64, i64, i32, i32, i8, i8, [1 x i8] }
%"class.rocksdb::lru_cache::LRUCacheShard" = type { %"class.rocksdb::CacheShardBase", i64, i64, i64, i8, double, double, double, double, %"struct.rocksdb::lru_cache::LRUHandle", ptr, ptr, %"class.rocksdb::lru_cache::LRUHandleTable", i64, i64, %"class.rocksdb::port::Mutex", ptr }
%"class.rocksdb::CacheShardBase" = type { i32 }
%"class.rocksdb::port::Mutex" = type { %union.pthread_mutex_t }
%union.pthread_mutex_t = type { %struct.__pthread_mutex_s }
%struct.__pthread_mutex_s = type { i32, i32, i32, i32, i32, i16, i16, %struct.__pthread_internal_list }
%struct.__pthread_internal_list = type { ptr, ptr }
%"class.std::_Function_base" = type { %"union.std::_Any_data", ptr }
%"union.std::_Any_data" = type { %"union.std::_Nocopy_types" }
%"union.std::_Nocopy_types" = type { { i64, i64 } }
%"class.std::function" = type { %"class.std::_Function_base", ptr }
%"class.rocksdb::ShardedCache" = type <{ %"class.rocksdb::ShardedCacheBase", ptr, i8, [7 x i8] }>
%"class.rocksdb::ShardedCacheBase" = type { %"class.rocksdb::Cache", %"struct.std::atomic", i32, i32, i8, i64, %"class.rocksdb::port::Mutex" }
%"class.rocksdb::Cache" = type { ptr, %"class.std::shared_ptr", %"class.std::function" }
%"class.std::shared_ptr" = type { %"class.std::__shared_ptr" }
%"class.std::__shared_ptr" = type { ptr, %"class.std::__shared_count" }
%"class.std::__shared_count" = type { ptr }
%"struct.std::atomic" = type { %"struct.std::__atomic_base" }
%"struct.std::__atomic_base" = type { i64 }

; Function Attrs: mustprogress nounwind uwtable
define linkonce_odr noundef i32 @_ZN7rocksdb11Lower32of64Em(i64 noundef %v) #4 comdat {
entry:
  %v.addr = alloca i64, align 8
  store i64 %v, ptr %v.addr, align 8
  %0 = load i64, ptr %v.addr, align 8
  %conv = trunc i64 %0 to i32
  ret i32 %conv
}

; Function Attrs: mustprogress nounwind uwtable
define linkonce_odr noundef i64 @_ZNK7rocksdb9lru_cache9LRUHandle15CalcuMetaChargeENS_25CacheMetadataChargePolicyE(ptr noundef nonnull align 8 dereferenceable(72) %this, i32 noundef %metadata_charge_policy) #4 comdat align 2 {
entry:
  %retval = alloca i64, align 8
  %this.addr = alloca ptr, align 8
  %metadata_charge_policy.addr = alloca i32, align 4
  store ptr %this, ptr %this.addr, align 8
  store i32 %metadata_charge_policy, ptr %metadata_charge_policy.addr, align 4
  %this1 = load ptr, ptr %this.addr, align 8
  %0 = load i32, ptr %metadata_charge_policy.addr, align 4
  %cmp = icmp ne i32 %0, 1
  br i1 %cmp, label %if.then, label %if.else

if.then:                                          ; preds = %entry
  store i64 0, ptr %retval, align 8
  br label %return

if.else:                                          ; preds = %entry
  %call = call i64 @malloc_usable_size(ptr noundef %this1) #15
  store i64 %call, ptr %retval, align 8
  br label %return

return:                                           ; preds = %if.else, %if.then
  %1 = load i64, ptr %retval, align 8
  ret i64 %1
}

; Function Attrs: mustprogress uwtable
define linkonce_odr noundef i32 @_ZN7rocksdb14CacheShardBase20HashPieceForShardingEm(i64 noundef %hash) #0 comdat align 2 {
entry:
  %hash.addr = alloca i64, align 8
  store i64 %hash, ptr %hash.addr, align 8
  %0 = load i64, ptr %hash.addr, align 8
  %call = call noundef i32 @_ZN7rocksdb11Lower32of64Em(i64 noundef %0)
  ret i32 %call
}

; Function Attrs: mustprogress nounwind uwtable
define linkonce_odr noundef i64 @_ZNK7rocksdb9lru_cache9LRUHandle9GetChargeENS_25CacheMetadataChargePolicyE(ptr noundef nonnull align 8 dereferenceable(72) %this, i32 noundef %metadata_charge_policy) #4 comdat align 2 {
entry:
  %this.addr = alloca ptr, align 8
  %metadata_charge_policy.addr = alloca i32, align 4
  %meta_charge = alloca i64, align 8
  store ptr %this, ptr %this.addr, align 8
  store i32 %metadata_charge_policy, ptr %metadata_charge_policy.addr, align 4
  %this1 = load ptr, ptr %this.addr, align 8
  %0 = load i32, ptr %metadata_charge_policy.addr, align 4
  %call = call noundef i64 @_ZNK7rocksdb9lru_cache9LRUHandle15CalcuMetaChargeENS_25CacheMetadataChargePolicyE(ptr noundef nonnull align 8 dereferenceable(72) %this1, i32 noundef %0)
  store i64 %call, ptr %meta_charge, align 8
  %total_charge = getelementptr inbounds %"struct.rocksdb::lru_cache::LRUHandle", ptr %this1, i32 0, i32 5
  %1 = load i64, ptr %total_charge, align 8
  %2 = load i64, ptr %meta_charge, align 8
  %sub = sub i64 %1, %2
  ret i64 %sub
}

; Function Attrs: mustprogress uwtable
define linkonce_odr noundef nonnull align 64 dereferenceable(256) ptr @_ZNK7rocksdb12ShardedCacheINS_9lru_cache13LRUCacheShardEE8GetShardEj(ptr noundef nonnull align 8 dereferenceable(137) %this, i32 noundef %hash) #0 comdat align 2 {
entry:
  %this.addr = alloca ptr, align 8
  %hash.addr = alloca i32, align 4
  store ptr %this, ptr %this.addr, align 8
  store i32 %hash, ptr %hash.addr, align 4
  %this1 = load ptr, ptr %this.addr, align 8
  %shards_ = getelementptr inbounds %"class.rocksdb::ShardedCache", ptr %this1, i32 0, i32 1
  %0 = load ptr, ptr %shards_, align 8
  %1 = load i32, ptr %hash.addr, align 4
  %conv = zext i32 %1 to i64
  %call = call noundef i32 @_ZN7rocksdb14CacheShardBase20HashPieceForShardingEm(i64 noundef %conv)
  %shard_mask_ = getelementptr inbounds %"class.rocksdb::ShardedCacheBase", ptr %this1, i32 0, i32 2
  %2 = load i32, ptr %shard_mask_, align 8
  %and = and i32 %call, %2
  %idxprom = zext i32 %and to i64
  %arrayidx = getelementptr inbounds %"class.rocksdb::lru_cache::LRUCacheShard", ptr %0, i64 %idxprom
  ret ptr %arrayidx
}

; Function Attrs: mustprogress uwtable
define noundef i64 @_ZNK7rocksdb9lru_cache8LRUCache9GetChargeEPNS_5Cache6HandleE(ptr noundef nonnull align 8 dereferenceable(144) %this, ptr noundef %handle) unnamed_addr #0 align 2 {
entry:
  %this.addr = alloca ptr, align 8
  %handle.addr = alloca ptr, align 8
  store ptr %this, ptr %this.addr, align 8
  store ptr %handle, ptr %handle.addr, align 8
  %this1 = load ptr, ptr %this.addr, align 8
  %0 = load ptr, ptr %handle.addr, align 8
  %call = call noundef nonnull align 64 dereferenceable(256) ptr @_ZNK7rocksdb12ShardedCacheINS_9lru_cache13LRUCacheShardEE8GetShardEj(ptr noundef nonnull align 8 dereferenceable(137) %this1, i32 noundef 0)
  %metadata_charge_policy_ = getelementptr inbounds %"class.rocksdb::CacheShardBase", ptr %call, i32 0, i32 0
  %1 = load i32, ptr %metadata_charge_policy_, align 64
  %call2 = call noundef i64 @_ZNK7rocksdb9lru_cache9LRUHandle9GetChargeENS_25CacheMetadataChargePolicyE(ptr noundef nonnull align 8 dereferenceable(72) %0, i32 noundef %1)
  ret i64 %call2
}