; Function Attrs: mustprogress nounwind uwtable
define noundef i64 @_ZNK7rocksdb9lru_cache8LRUCache9GetChargeEPNS_5Cache6HandleE(ptr nocapture noundef nonnull readonly align 8 dereferenceable(144) %this, ptr noundef %handle) unnamed_addr #3 align 2 {
entry:
  %shards_.i = getelementptr inbounds i8, ptr %this, i64 128
  %0 = load ptr, ptr %shards_.i, align 8
  %1 = load i32, ptr %0, align 64
  %cmp.not.i.i = icmp eq i32 %1, 1
  br i1 %cmp.not.i.i, label %if.else.i.i, label %_ZNK7rocksdb9lru_cache9LRUHandle9GetChargeENS_25CacheMetadataChargePolicyE.exit

if.else.i.i:                                      ; preds = %entry
  %call.i.i = tail call i64 @malloc_usable_size(ptr noundef nonnull %handle) #25
  br label %_ZNK7rocksdb9lru_cache9LRUHandle9GetChargeENS_25CacheMetadataChargePolicyE.exit

_ZNK7rocksdb9lru_cache9LRUHandle9GetChargeENS_25CacheMetadataChargePolicyE.exit: ; preds = %entry, %if.else.i.i
  %retval.0.i.i = phi i64 [ %call.i.i, %if.else.i.i ], [ 0, %entry ]
  %total_charge.i = getelementptr inbounds i8, ptr %handle, i64 40
  %2 = load i64, ptr %total_charge.i, align 8
  %sub.i = sub i64 %2, %retval.0.i.i
  ret i64 %sub.i
}